; ModuleID = '45/76.c'
source_filename = "45/76.c"
target datalayout = "e-m:e-p270:32:32-p271:32:32-p272:64:64-i64:64-f80:128-n8:16:32:64-S128"
target triple = "x86_64-pc-linux-gnu"

@.str = private unnamed_addr constant [5 x i8] c"%s%s\00", align 1
@.str.1 = private unnamed_addr constant [3 x i8] c"%d\00", align 1

; Function Attrs: noinline nounwind uwtable
define dso_local i32 @main(i32 %0, i8** %1) #0 {
  %3 = alloca i32, align 4
  %4 = alloca i32, align 4
  %5 = alloca i8**, align 8
  %6 = alloca [50 x i8], align 16
  %7 = alloca [50 x i8], align 16
  %8 = alloca i32, align 4
  %9 = alloca i32, align 4
  %10 = alloca i32, align 4
  store i32 0, i32* %3, align 4
  store i32 %0, i32* %4, align 4
  store i8** %1, i8*** %5, align 8
  %11 = getelementptr inbounds [50 x i8], [50 x i8]* %6, i64 0, i64 0
  %12 = getelementptr inbounds [50 x i8], [50 x i8]* %7, i64 0, i64 0
  %13 = call i32 (i8*, ...) @__isoc99_scanf(i8* getelementptr inbounds ([5 x i8], [5 x i8]* @.str, i64 0, i64 0), i8* %11, i8* %12)
  %14 = getelementptr inbounds [50 x i8], [50 x i8]* %6, i64 0, i64 0
  %15 = call i64 @strlen(i8* %14) #3
  %16 = trunc i64 %15 to i32
  store i32 %16, i32* %8, align 4
  %17 = getelementptr inbounds [50 x i8], [50 x i8]* %7, i64 0, i64 0
  %18 = call i64 @strlen(i8* %17) #3
  %19 = trunc i64 %18 to i32
  store i32 %19, i32* %9, align 4
  store i32 0, i32* %10, align 4
  br label %20

20:                                               ; preds = %47, %2
  %21 = load i32, i32* %10, align 4
  %22 = load i32, i32* %8, align 4
  %23 = icmp slt i32 %21, %22
  br i1 %23, label %24, label %50

24:                                               ; preds = %20
  %25 = getelementptr inbounds [50 x i8], [50 x i8]* %6, i64 0, i64 0
  %26 = load i8, i8* %25, align 16
  %27 = sext i8 %26 to i32
  %28 = load i32, i32* %10, align 4
  %29 = sext i32 %28 to i64
  %30 = getelementptr inbounds [50 x i8], [50 x i8]* %7, i64 0, i64 %29
  %31 = load i8, i8* %30, align 1
  %32 = sext i8 %31 to i32
  %33 = icmp eq i32 %27, %32
  br i1 %33, label %34, label %46

34:                                               ; preds = %24
  %35 = getelementptr inbounds [50 x i8], [50 x i8]* %6, i64 0, i64 1
  %36 = load i8, i8* %35, align 1
  %37 = sext i8 %36 to i32
  %38 = load i32, i32* %10, align 4
  %39 = add nsw i32 %38, 1
  %40 = sext i32 %39 to i64
  %41 = getelementptr inbounds [50 x i8], [50 x i8]* %7, i64 0, i64 %40
  %42 = load i8, i8* %41, align 1
  %43 = sext i8 %42 to i32
  %44 = icmp eq i32 %37, %43
  br i1 %44, label %45, label %46

45:                                               ; preds = %34
  br label %50

46:                                               ; preds = %34, %24
  br label %47

47:                                               ; preds = %46
  %48 = load i32, i32* %10, align 4
  %49 = add nsw i32 %48, 1
  store i32 %49, i32* %10, align 4
  br label %20

50:                                               ; preds = %45, %20
  %51 = load i32, i32* %10, align 4
  %52 = call i32 (i8*, ...) @printf(i8* getelementptr inbounds ([3 x i8], [3 x i8]* @.str.1, i64 0, i64 0), i32 %51)
  ret i32 0
}

declare dso_local i32 @__isoc99_scanf(i8*, ...) #1

; Function Attrs: nounwind readonly
declare dso_local i64 @strlen(i8*) #2

declare dso_local i32 @printf(i8*, ...) #1


!llvm.module.flags = !{!0}
!llvm.ident = !{!1}

!0 = !{i32 1, !"wchar_size", i32 4}
!1 = !{!"clang version 10.0.0-4ubuntu1 "}
